; Function Attrs: mustprogress uwtable
define noundef range(i32 -1, 2) i32 @_ZNK30grpc_server_security_connector29server_security_connector_cmpEPKS_(ptr noundef nonnull readonly align 8 captures(none) dereferenceable(40) %0, ptr noundef readonly captures(none) %1) local_unnamed_addr #4 align 2 personality ptr @__gxx_personality_v0 {
  %3 = alloca %"class.absl::lts_20240722::log_internal::LogMessageFatal", align 8
  %4 = alloca %"class.absl::lts_20240722::log_internal::LogMessageFatal", align 8
  %5 = getelementptr inbounds nuw i8, ptr %0, i64 32
  %6 = load ptr, ptr %5, align 8, !tbaa !27
  %.not.i = icmp eq ptr %6, null
  br i1 %.not.i, label %10, label %7, !prof !22

7:                                                ; preds = %2
  %8 = getelementptr inbounds nuw i8, ptr %1, i64 32
  %9 = load ptr, ptr %8, align 8, !tbaa !27
  %.not.i12 = icmp eq ptr %9, null
  br i1 %.not.i12, label %18, label %15, !prof !22

10:                                               ; preds = %2
  %11 = tail call noundef nonnull ptr @_ZN4absl12lts_2024072212log_internal17MakeCheckOpStringIPKvS4_EEPNSt7__cxx1112basic_stringIcSt11char_traitsIcESaIcEEET_T0_PKc(ptr noundef null, ptr noundef null, ptr noundef nonnull @.str.3)
  call void @llvm.lifetime.start.p0(i64 16, ptr nonnull %3) #26
  %12 = load ptr, ptr %11, align 8, !tbaa !23
  %13 = getelementptr inbounds nuw i8, ptr %11, i64 8
  %14 = load i64, ptr %13, align 8, !tbaa !26
  call void @_ZN4absl12lts_2024072212log_internal15LogMessageFatalC1EPKciSt17basic_string_viewIcSt11char_traitsIcEE(ptr noundef nonnull align 8 dereferenceable(16) %3, ptr noundef nonnull @.str.1, i32 noundef 67, i64 %14, ptr %12) #27
  call void @_ZN4absl12lts_2024072212log_internal15LogMessageFatalD1Ev(ptr noundef nonnull align 8 dereferenceable(16) %3) #28
  unreachable

15:                                               ; preds = %7
  %16 = icmp ult ptr %6, %9
  %17 = icmp ult ptr %9, %6
  %..i = zext i1 %17 to i32
  %.0.i = select i1 %16, i32 -1, i32 %..i
  ret i32 %.0.i

18:                                               ; preds = %7
  %19 = tail call noundef nonnull ptr @_ZN4absl12lts_2024072212log_internal17MakeCheckOpStringIPKvS4_EEPNSt7__cxx1112basic_stringIcSt11char_traitsIcESaIcEEET_T0_PKc(ptr noundef null, ptr noundef null, ptr noundef nonnull @.str.4)
  call void @llvm.lifetime.start.p0(i64 16, ptr nonnull %4) #26
  %20 = load ptr, ptr %19, align 8, !tbaa !23
  %21 = getelementptr inbounds nuw i8, ptr %19, i64 8
  %22 = load i64, ptr %21, align 8, !tbaa !26
  call void @_ZN4absl12lts_2024072212log_internal15LogMessageFatalC1EPKciSt17basic_string_viewIcSt11char_traitsIcEE(ptr noundef nonnull align 8 dereferenceable(16) %4, ptr noundef nonnull @.str.1, i32 noundef 68, i64 %22, ptr %20) #27
  call void @_ZN4absl12lts_2024072212log_internal15LogMessageFatalD1Ev(ptr noundef nonnull align 8 dereferenceable(16) %4) #28
  unreachable
}